target datalayout = "e-m:e-p270:32:32-p271:32:32-p272:64:64-i64:64-i128:128-f80:128-n8:16:32:64-S128"
target triple = "x86_64-pc-linux-gnu"

%struct.H5G_loc_t = type { ptr, ptr }
%struct.H5VL_loc_params_t = type { i32, i32, %union.anon }
%union.anon = type { %struct.H5VL_loc_by_idx }
%struct.H5VL_loc_by_idx = type { ptr, i32, i32, i64, i64 }

@.str = private unnamed_addr constant [111 x i8] c"generated/home/dtcxzyw/WorkSpace/Projects/compilers/llvm-opt-benchmark/bench/hdf5/hdf5/src/H5VLnative_object.c\00", align 1
@H5E_ARGS_g = external global i64, align 8
@H5E_BADTYPE_g = external global i64, align 8
@.str.1 = private unnamed_addr constant [26 x i8] c"not a file or file object\00", align 1
@H5E_OHDR_g = external global i64, align 8
@__func__.H5VL__native_object_copy = private unnamed_addr constant [25 x i8] c"H5VL__native_object_copy\00", align 1
@H5E_CANTCOPY_g = external global i64, align 8
@.str.7 = private unnamed_addr constant [22 x i8] c"unable to copy object\00", align 1

; Function Attrs: nounwind uwtable
define i32 @H5VL__native_object_copy(ptr noundef %0, ptr noundef %1, ptr noundef %2, ptr noundef %3, ptr noundef %4, ptr noundef %5, i64 noundef %6, i64 noundef %7, i64 noundef %8, ptr noundef %9) #0 {
  %11 = alloca ptr, align 8
  %12 = alloca ptr, align 8
  %13 = alloca ptr, align 8
  %14 = alloca ptr, align 8
  %15 = alloca ptr, align 8
  %16 = alloca ptr, align 8
  %17 = alloca i64, align 8
  %18 = alloca i64, align 8
  %19 = alloca i64, align 8
  %20 = alloca ptr, align 8
  %21 = alloca %struct.H5G_loc_t, align 8
  %22 = alloca %struct.H5G_loc_t, align 8
  %23 = alloca i32, align 4
  %24 = alloca i8, align 1
  store ptr %0, ptr %11, align 8
  store ptr %1, ptr %12, align 8
  store ptr %2, ptr %13, align 8
  store ptr %3, ptr %14, align 8
  store ptr %4, ptr %15, align 8
  store ptr %5, ptr %16, align 8
  store i64 %6, ptr %17, align 8
  store i64 %7, ptr %18, align 8
  store i64 %8, ptr %19, align 8
  store ptr %9, ptr %20, align 8
  store i32 -1, ptr %23, align 4
  store i8 0, ptr %24, align 1
  %25 = load ptr, ptr %11, align 8
  %26 = load ptr, ptr %12, align 8
  %27 = getelementptr inbounds %struct.H5VL_loc_params_t, ptr %26, i32 0, i32 0
  %28 = load i32, ptr %27, align 8
  %29 = call i32 @H5G_loc_real(ptr noundef %25, i32 noundef %28, ptr noundef %21)
  %30 = icmp slt i32 %29, 0
  br i1 %30, label %31, label %46

31:                                               ; preds = %10
  br label %32

32:                                               ; preds = %31
  br label %33

33:                                               ; preds = %32
  br label %34

34:                                               ; preds = %33
  %35 = load i64, ptr @H5E_ARGS_g, align 8
  %36 = load i64, ptr @H5E_BADTYPE_g, align 8
  %37 = call i32 (ptr, ptr, i32, i64, i64, ptr, ...) @H5E_printf_stack(ptr noundef @.str, ptr noundef @__func__.H5VL__native_object_copy, i32 noundef 149, i64 noundef %35, i64 noundef %36, ptr noundef @.str.1)
  br label %38

38:                                               ; preds = %34
  store i8 1, ptr %24, align 1
  %39 = load i8, ptr %24, align 1
  %40 = trunc i8 %39 to i1
  %41 = zext i1 %40 to i8
  store i8 %41, ptr %24, align 1
  br label %42

42:                                               ; preds = %38
  br label %43

43:                                               ; preds = %42
  store i32 -1, ptr %23, align 4
  br label %91

44:                                               ; No predecessors!
  br label %45

45:                                               ; preds = %44
  br label %46

46:                                               ; preds = %45, %10
  %47 = load ptr, ptr %14, align 8
  %48 = load ptr, ptr %15, align 8
  %49 = getelementptr inbounds %struct.H5VL_loc_params_t, ptr %48, i32 0, i32 0
  %50 = load i32, ptr %49, align 8
  %51 = call i32 @H5G_loc_real(ptr noundef %47, i32 noundef %50, ptr noundef %22)
  %52 = icmp slt i32 %51, 0
  br i1 %52, label %53, label %68

53:                                               ; preds = %46
  br label %54

54:                                               ; preds = %53
  br label %55

55:                                               ; preds = %54
  br label %56

56:                                               ; preds = %55
  %57 = load i64, ptr @H5E_ARGS_g, align 8
  %58 = load i64, ptr @H5E_BADTYPE_g, align 8
  %59 = call i32 (ptr, ptr, i32, i64, i64, ptr, ...) @H5E_printf_stack(ptr noundef @.str, ptr noundef @__func__.H5VL__native_object_copy, i32 noundef 151, i64 noundef %57, i64 noundef %58, ptr noundef @.str.1)
  br label %60

60:                                               ; preds = %56
  store i8 1, ptr %24, align 1
  %61 = load i8, ptr %24, align 1
  %62 = trunc i8 %61 to i1
  %63 = zext i1 %62 to i8
  store i8 %63, ptr %24, align 1
  br label %64

64:                                               ; preds = %60
  br label %65

65:                                               ; preds = %64
  store i32 -1, ptr %23, align 4
  br label %91

66:                                               ; No predecessors!
  br label %67

67:                                               ; preds = %66
  br label %68

68:                                               ; preds = %67, %46
  %69 = load ptr, ptr %13, align 8
  %70 = load ptr, ptr %16, align 8
  %71 = load i64, ptr %17, align 8
  %72 = load i64, ptr %18, align 8
  %73 = call i32 @H5O__copy(ptr noundef %21, ptr noundef %69, ptr noundef %22, ptr noundef %70, i64 noundef %71, i64 noundef %72)
  store i32 %73, ptr %23, align 4
  %74 = icmp slt i32 %73, 0
  br i1 %74, label %75, label %90

75:                                               ; preds = %68
  br label %76

76:                                               ; preds = %75
  br label %77

77:                                               ; preds = %76
  br label %78

78:                                               ; preds = %77
  %79 = load i64, ptr @H5E_OHDR_g, align 8
  %80 = load i64, ptr @H5E_CANTCOPY_g, align 8
  %81 = call i32 (ptr, ptr, i32, i64, i64, ptr, ...) @H5E_printf_stack(ptr noundef @.str, ptr noundef @__func__.H5VL__native_object_copy, i32 noundef 155, i64 noundef %79, i64 noundef %80, ptr noundef @.str.7)
  br label %82

82:                                               ; preds = %78
  store i8 1, ptr %24, align 1
  %83 = load i8, ptr %24, align 1
  %84 = trunc i8 %83 to i1
  %85 = zext i1 %84 to i8
  store i8 %85, ptr %24, align 1
  br label %86

86:                                               ; preds = %82
  br label %87

87:                                               ; preds = %86
  store i32 -1, ptr %23, align 4
  br label %91

88:                                               ; No predecessors!
  br label %89

89:                                               ; preds = %88
  br label %90

90:                                               ; preds = %89, %68
  br label %91

91:                                               ; preds = %90, %87, %65, %43
  %92 = load i32, ptr %23, align 4
  ret i32 %92
}