; Function Attrs: nounwind uwtable
define range(i32 -1, -2147483648) i32 @H5VL__native_object_copy(ptr noundef %0, ptr nocapture noundef readonly %1, ptr noundef %2, ptr noundef %3, ptr nocapture noundef readonly %4, ptr noundef %5, i64 noundef %6, i64 noundef %7, i64 noundef %8, ptr nocapture noundef readnone %9) local_unnamed_addr #0 {
  %11 = alloca %struct.H5G_loc_t, align 8
  %12 = alloca %struct.H5G_loc_t, align 8
  %13 = load i32, ptr %1, align 8
  %14 = call i32 @H5G_loc_real(ptr noundef %0, i32 noundef %13, ptr noundef nonnull %11) #2
  %15 = icmp slt i32 %14, 0
  br i1 %15, label %16, label %20

16:                                               ; preds = %10
  %17 = load i64, ptr @H5E_ARGS_g, align 8
  %18 = load i64, ptr @H5E_BADTYPE_g, align 8
  %19 = call i32 (ptr, ptr, i32, i64, i64, ptr, ...) @H5E_printf_stack(ptr noundef nonnull @.str, ptr noundef nonnull @__func__.H5VL__native_object_copy, i32 noundef 149, i64 noundef %17, i64 noundef %18, ptr noundef nonnull @.str.1) #2
  br label %35

20:                                               ; preds = %10
  %21 = load i32, ptr %4, align 8
  %22 = call i32 @H5G_loc_real(ptr noundef %3, i32 noundef %21, ptr noundef nonnull %12) #2
  %23 = icmp slt i32 %22, 0
  br i1 %23, label %24, label %28

24:                                               ; preds = %20
  %25 = load i64, ptr @H5E_ARGS_g, align 8
  %26 = load i64, ptr @H5E_BADTYPE_g, align 8
  %27 = call i32 (ptr, ptr, i32, i64, i64, ptr, ...) @H5E_printf_stack(ptr noundef nonnull @.str, ptr noundef nonnull @__func__.H5VL__native_object_copy, i32 noundef 151, i64 noundef %25, i64 noundef %26, ptr noundef nonnull @.str.1) #2
  br label %35

28:                                               ; preds = %20
  %29 = call i32 @H5O__copy(ptr noundef nonnull %11, ptr noundef %2, ptr noundef nonnull %12, ptr noundef %5, i64 noundef %6, i64 noundef %7) #2
  %30 = icmp slt i32 %29, 0
  br i1 %30, label %31, label %35

31:                                               ; preds = %28
  %32 = load i64, ptr @H5E_OHDR_g, align 8
  %33 = load i64, ptr @H5E_CANTCOPY_g, align 8
  %34 = call i32 (ptr, ptr, i32, i64, i64, ptr, ...) @H5E_printf_stack(ptr noundef nonnull @.str, ptr noundef nonnull @__func__.H5VL__native_object_copy, i32 noundef 155, i64 noundef %32, i64 noundef %33, ptr noundef nonnull @.str.7) #2
  br label %35

35:                                               ; preds = %28, %31, %24, %16
  %.0 = phi i32 [ -1, %16 ], [ -1, %24 ], [ -1, %31 ], [ %29, %28 ]
  ret i32 %.0
}